; Function Attrs: nofree nounwind memory(readwrite, inaccessiblemem: read) uwtable
define hidden noundef ptr @evdns_tree_SPLAY_REMOVE(ptr noundef captures(none) %0, ptr noundef readonly captures(ret: address, provenance) %1) local_unnamed_addr #10 {
  %3 = load ptr, ptr %0, align 8
  %4 = icmp eq ptr %3, null
  br i1 %4, label %20, label %5

5:                                                ; preds = %2
  tail call void @evdns_tree_SPLAY(ptr noundef nonnull %0, ptr noundef %1)
  %6 = load ptr, ptr %0, align 8
  %7 = getelementptr i8, ptr %1, i64 16
  %.val = load ptr, ptr %7, align 8
  %8 = getelementptr i8, ptr %6, i64 16
  %.val18 = load ptr, ptr %8, align 8
  %9 = tail call i32 @strcasecmp(ptr noundef readonly %.val, ptr noundef readonly %.val18) #23
  %10 = icmp eq i32 %9, 0
  br i1 %10, label %11, label %20

11:                                               ; preds = %5
  %12 = load ptr, ptr %6, align 8
  %13 = icmp eq ptr %12, null
  %14 = getelementptr inbounds nuw i8, ptr %6, i64 8
  %15 = load ptr, ptr %14, align 8
  br i1 %13, label %16, label %17

16:                                               ; preds = %11
  store ptr %15, ptr %0, align 8
  br label %20

17:                                               ; preds = %11
  store ptr %12, ptr %0, align 8
  tail call void @evdns_tree_SPLAY(ptr noundef nonnull %0, ptr noundef nonnull %1)
  %18 = load ptr, ptr %0, align 8
  %19 = getelementptr inbounds nuw i8, ptr %18, i64 8
  store ptr %15, ptr %19, align 8
  br label %20

20:                                               ; preds = %5, %16, %17, %2
  %.0 = phi ptr [ null, %2 ], [ %1, %17 ], [ %1, %16 ], [ null, %5 ]
  ret ptr %.0
}